target datalayout = "e-m:e-p270:32:32-p271:32:32-p272:64:64-i64:64-i128:128-f80:128-n8:16:32:64-S128"
target triple = "x86_64-pc-linux-gnu"

; Function Attrs: nounwind uwtable
define internal i32 @vsad8_c(ptr noundef %0, ptr noundef %1, ptr noundef %2, i64 noundef %3, i32 noundef %4) #2 {
  %6 = alloca ptr, align 8
  %7 = alloca ptr, align 8
  %8 = alloca ptr, align 8
  %9 = alloca i64, align 8
  %10 = alloca i32, align 4
  %11 = alloca i32, align 4
  %12 = alloca i32, align 4
  %13 = alloca i32, align 4
  store ptr %0, ptr %6, align 8, !tbaa !22
  store ptr %1, ptr %7, align 8, !tbaa !24
  store ptr %2, ptr %8, align 8, !tbaa !24
  store i64 %3, ptr %9, align 8, !tbaa !26
  store i32 %4, ptr %10, align 4, !tbaa !11
  call void @llvm.lifetime.start.p0(i64 4, ptr %11) #9
  store i32 0, ptr %11, align 4, !tbaa !11
  call void @llvm.lifetime.start.p0(i64 4, ptr %12) #9
  call void @llvm.lifetime.start.p0(i64 4, ptr %13) #9
  store i32 1, ptr %13, align 4, !tbaa !11
  br label %14

14:                                               ; preds = %134, %5
  %15 = load i32, ptr %13, align 4, !tbaa !11
  %16 = load i32, ptr %10, align 4, !tbaa !11
  %17 = icmp slt i32 %15, %16
  br i1 %17, label %18, label %137

18:                                               ; preds = %14
  store i32 0, ptr %12, align 4, !tbaa !11
  br label %19

19:                                               ; preds = %124, %18
  %20 = load i32, ptr %12, align 4, !tbaa !11
  %21 = icmp slt i32 %20, 8
  br i1 %21, label %22, label %127

22:                                               ; preds = %19
  %23 = load ptr, ptr %7, align 8, !tbaa !24
  %24 = load i32, ptr %12, align 4, !tbaa !11
  %25 = sext i32 %24 to i64
  %26 = getelementptr inbounds i8, ptr %23, i64 %25
  %27 = load i8, ptr %26, align 1, !tbaa !36
  %28 = zext i8 %27 to i32
  %29 = load ptr, ptr %8, align 8, !tbaa !24
  %30 = load i32, ptr %12, align 4, !tbaa !11
  %31 = sext i32 %30 to i64
  %32 = getelementptr inbounds i8, ptr %29, i64 %31
  %33 = load i8, ptr %32, align 1, !tbaa !36
  %34 = zext i8 %33 to i32
  %35 = sub nsw i32 %28, %34
  %36 = load ptr, ptr %7, align 8, !tbaa !24
  %37 = load i32, ptr %12, align 4, !tbaa !11
  %38 = sext i32 %37 to i64
  %39 = load i64, ptr %9, align 8, !tbaa !26
  %40 = add nsw i64 %38, %39
  %41 = getelementptr inbounds i8, ptr %36, i64 %40
  %42 = load i8, ptr %41, align 1, !tbaa !36
  %43 = zext i8 %42 to i32
  %44 = sub nsw i32 %35, %43
  %45 = load ptr, ptr %8, align 8, !tbaa !24
  %46 = load i32, ptr %12, align 4, !tbaa !11
  %47 = sext i32 %46 to i64
  %48 = load i64, ptr %9, align 8, !tbaa !26
  %49 = add nsw i64 %47, %48
  %50 = getelementptr inbounds i8, ptr %45, i64 %49
  %51 = load i8, ptr %50, align 1, !tbaa !36
  %52 = zext i8 %51 to i32
  %53 = add nsw i32 %44, %52
  %54 = icmp sge i32 %53, 0
  br i1 %54, label %55, label %87

55:                                               ; preds = %22
  %56 = load ptr, ptr %7, align 8, !tbaa !24
  %57 = load i32, ptr %12, align 4, !tbaa !11
  %58 = sext i32 %57 to i64
  %59 = getelementptr inbounds i8, ptr %56, i64 %58
  %60 = load i8, ptr %59, align 1, !tbaa !36
  %61 = zext i8 %60 to i32
  %62 = load ptr, ptr %8, align 8, !tbaa !24
  %63 = load i32, ptr %12, align 4, !tbaa !11
  %64 = sext i32 %63 to i64
  %65 = getelementptr inbounds i8, ptr %62, i64 %64
  %66 = load i8, ptr %65, align 1, !tbaa !36
  %67 = zext i8 %66 to i32
  %68 = sub nsw i32 %61, %67
  %69 = load ptr, ptr %7, align 8, !tbaa !24
  %70 = load i32, ptr %12, align 4, !tbaa !11
  %71 = sext i32 %70 to i64
  %72 = load i64, ptr %9, align 8, !tbaa !26
  %73 = add nsw i64 %71, %72
  %74 = getelementptr inbounds i8, ptr %69, i64 %73
  %75 = load i8, ptr %74, align 1, !tbaa !36
  %76 = zext i8 %75 to i32
  %77 = sub nsw i32 %68, %76
  %78 = load ptr, ptr %8, align 8, !tbaa !24
  %79 = load i32, ptr %12, align 4, !tbaa !11
  %80 = sext i32 %79 to i64
  %81 = load i64, ptr %9, align 8, !tbaa !26
  %82 = add nsw i64 %80, %81
  %83 = getelementptr inbounds i8, ptr %78, i64 %82
  %84 = load i8, ptr %83, align 1, !tbaa !36
  %85 = zext i8 %84 to i32
  %86 = add nsw i32 %77, %85
  br label %120

87:                                               ; preds = %22
  %88 = load ptr, ptr %7, align 8, !tbaa !24
  %89 = load i32, ptr %12, align 4, !tbaa !11
  %90 = sext i32 %89 to i64
  %91 = getelementptr inbounds i8, ptr %88, i64 %90
  %92 = load i8, ptr %91, align 1, !tbaa !36
  %93 = zext i8 %92 to i32
  %94 = load ptr, ptr %8, align 8, !tbaa !24
  %95 = load i32, ptr %12, align 4, !tbaa !11
  %96 = sext i32 %95 to i64
  %97 = getelementptr inbounds i8, ptr %94, i64 %96
  %98 = load i8, ptr %97, align 1, !tbaa !36
  %99 = zext i8 %98 to i32
  %100 = sub nsw i32 %93, %99
  %101 = load ptr, ptr %7, align 8, !tbaa !24
  %102 = load i32, ptr %12, align 4, !tbaa !11
  %103 = sext i32 %102 to i64
  %104 = load i64, ptr %9, align 8, !tbaa !26
  %105 = add nsw i64 %103, %104
  %106 = getelementptr inbounds i8, ptr %101, i64 %105
  %107 = load i8, ptr %106, align 1, !tbaa !36
  %108 = zext i8 %107 to i32
  %109 = sub nsw i32 %100, %108
  %110 = load ptr, ptr %8, align 8, !tbaa !24
  %111 = load i32, ptr %12, align 4, !tbaa !11
  %112 = sext i32 %111 to i64
  %113 = load i64, ptr %9, align 8, !tbaa !26
  %114 = add nsw i64 %112, %113
  %115 = getelementptr inbounds i8, ptr %110, i64 %114
  %116 = load i8, ptr %115, align 1, !tbaa !36
  %117 = zext i8 %116 to i32
  %118 = add nsw i32 %109, %117
  %119 = sub nsw i32 0, %118
  br label %120

120:                                              ; preds = %87, %55
  %121 = phi i32 [ %86, %55 ], [ %119, %87 ]
  %122 = load i32, ptr %11, align 4, !tbaa !11
  %123 = add nsw i32 %122, %121
  store i32 %123, ptr %11, align 4, !tbaa !11
  br label %124

124:                                              ; preds = %120
  %125 = load i32, ptr %12, align 4, !tbaa !11
  %126 = add nsw i32 %125, 1
  store i32 %126, ptr %12, align 4, !tbaa !11
  br label %19, !llvm.loop !105

127:                                              ; preds = %19
  %128 = load i64, ptr %9, align 8, !tbaa !26
  %129 = load ptr, ptr %7, align 8, !tbaa !24
  %130 = getelementptr inbounds i8, ptr %129, i64 %128
  store ptr %130, ptr %7, align 8, !tbaa !24
  %131 = load i64, ptr %9, align 8, !tbaa !26
  %132 = load ptr, ptr %8, align 8, !tbaa !24
  %133 = getelementptr inbounds i8, ptr %132, i64 %131
  store ptr %133, ptr %8, align 8, !tbaa !24
  br label %134

134:                                              ; preds = %127
  %135 = load i32, ptr %13, align 4, !tbaa !11
  %136 = add nsw i32 %135, 1
  store i32 %136, ptr %13, align 4, !tbaa !11
  br label %14, !llvm.loop !106

137:                                              ; preds = %14
  %138 = load i32, ptr %11, align 4, !tbaa !11
  call void @llvm.lifetime.end.p0(i64 4, ptr %13) #9
  call void @llvm.lifetime.end.p0(i64 4, ptr %12) #9
  call void @llvm.lifetime.end.p0(i64 4, ptr %11) #9
  ret i32 %138
}